target datalayout = "e-m:e-p270:32:32-p271:32:32-p272:64:64-i64:64-i128:128-f80:128-n8:16:32:64-S128"
target triple = "x86_64-unknown-linux-gnu"

%"class.icu_75::UnicodeString" = type { %"class.icu_75::Replaceable", %"union.icu_75::UnicodeString::StackBufferOrFields" }
%"class.icu_75::Replaceable" = type { %"class.icu_75::UObject" }
%"class.icu_75::UObject" = type { ptr }
%"union.icu_75::UnicodeString::StackBufferOrFields" = type { %struct.anon.0, [32 x i8] }
%struct.anon.0 = type { i16, i32, i32, ptr }
%"class.icu_75::UnicodeSet" = type <{ %"class.icu_75::UnicodeFilter", ptr, i32, i32, i8, [7 x i8], ptr, ptr, i32, [4 x i8], ptr, i32, [4 x i8], ptr, ptr, [25 x i32], [4 x i8] }>
%"class.icu_75::UnicodeFilter" = type { %"class.icu_75::UnicodeFunctor", %"class.icu_75::UnicodeMatcher" }
%"class.icu_75::UnicodeFunctor" = type { %"class.icu_75::UObject" }
%"class.icu_75::UnicodeMatcher" = type { ptr }
%"class.icu_75::ParsePosition" = type { %"class.icu_75::UObject", i32, i32 }

@_ZTVN6icu_7510UnicodeSetE = external unnamed_addr constant { [35 x ptr], [8 x ptr] }, align 8
@_ZTVN6icu_7513UnicodeFilterE = external unnamed_addr constant { [11 x ptr], [8 x ptr] }, align 8
@_ZTVN6icu_7514UnicodeFunctorE = external unnamed_addr constant { [9 x ptr] }, align 8
@_ZTVN6icu_757UObjectE = external unnamed_addr constant { [5 x ptr] }, align 8
@_ZTVN6icu_7514UnicodeMatcherE = external unnamed_addr constant { [8 x ptr] }, align 8
@_ZTVN6icu_7513ParsePositionE = external unnamed_addr constant { [5 x ptr] }, align 8

; Function Attrs: mustprogress nounwind uwtable
define linkonce_odr noundef i32 @_ZNK6icu_7513UnicodeString14getShortLengthEv(ptr noundef nonnull align 8 dereferenceable(64) %this) #0 comdat align 2 {
entry:
  %this.addr = alloca ptr, align 8
  store ptr %this, ptr %this.addr, align 8
  %this1 = load ptr, ptr %this.addr, align 8
  %fUnion = getelementptr inbounds %"class.icu_75::UnicodeString", ptr %this1, i32 0, i32 1
  %fLengthAndFlags = getelementptr inbounds %struct.anon.0, ptr %fUnion, i32 0, i32 0
  %0 = load i16, ptr %fLengthAndFlags, align 8
  %conv = sext i16 %0 to i32
  %shr = ashr i32 %conv, 5
  ret i32 %shr
}

; Function Attrs: mustprogress nounwind uwtable
define linkonce_odr noundef signext i8 @_ZNK6icu_7513UnicodeString14hasShortLengthEv(ptr noundef nonnull align 8 dereferenceable(64) %this) #0 comdat align 2 {
entry:
  %this.addr = alloca ptr, align 8
  store ptr %this, ptr %this.addr, align 8
  %this1 = load ptr, ptr %this.addr, align 8
  %fUnion = getelementptr inbounds %"class.icu_75::UnicodeString", ptr %this1, i32 0, i32 1
  %fLengthAndFlags = getelementptr inbounds %struct.anon.0, ptr %fUnion, i32 0, i32 0
  %0 = load i16, ptr %fLengthAndFlags, align 8
  %conv = sext i16 %0 to i32
  %cmp = icmp sge i32 %conv, 0
  %conv2 = zext i1 %cmp to i8
  ret i8 %conv2
}

; Function Attrs: mustprogress nounwind uwtable
define linkonce_odr void @_ZN6icu_757UObjectC2Ev(ptr noundef nonnull align 8 dereferenceable(8) %this) unnamed_addr #0 comdat align 2 {
entry:
  %this.addr = alloca ptr, align 8
  store ptr %this, ptr %this.addr, align 8
  %this1 = load ptr, ptr %this.addr, align 8
  store ptr getelementptr inbounds ({ [5 x ptr] }, ptr @_ZTVN6icu_757UObjectE, i32 0, i32 0, i32 2), ptr %this1, align 8
  ret void
}

; Function Attrs: mustprogress uwtable
define linkonce_odr noundef i32 @_ZNK6icu_7513UnicodeString6lengthEv(ptr noundef nonnull align 8 dereferenceable(64) %this) #1 comdat align 2 {
entry:
  %this.addr = alloca ptr, align 8
  store ptr %this, ptr %this.addr, align 8
  %this1 = load ptr, ptr %this.addr, align 8
  %call = call noundef signext i8 @_ZNK6icu_7513UnicodeString14hasShortLengthEv(ptr noundef nonnull align 8 dereferenceable(64) %this1)
  %tobool = icmp ne i8 %call, 0
  br i1 %tobool, label %cond.true, label %cond.false

cond.true:                                        ; preds = %entry
  %call2 = call noundef i32 @_ZNK6icu_7513UnicodeString14getShortLengthEv(ptr noundef nonnull align 8 dereferenceable(64) %this1)
  br label %cond.end

cond.false:                                       ; preds = %entry
  %fUnion = getelementptr inbounds %"class.icu_75::UnicodeString", ptr %this1, i32 0, i32 1
  %fLength = getelementptr inbounds %struct.anon.0, ptr %fUnion, i32 0, i32 1
  %0 = load i32, ptr %fLength, align 4
  br label %cond.end

cond.end:                                         ; preds = %cond.false, %cond.true
  %cond = phi i32 [ %call2, %cond.true ], [ %0, %cond.false ]
  ret i32 %cond
}

; Function Attrs: mustprogress nounwind uwtable
define linkonce_odr noundef i32 @_ZNK6icu_7513ParsePosition8getIndexEv(ptr noundef nonnull align 8 dereferenceable(16) %this) #0 comdat align 2 {
entry:
  %this.addr = alloca ptr, align 8
  store ptr %this, ptr %this.addr, align 8
  %this1 = load ptr, ptr %this.addr, align 8
  %index = getelementptr inbounds %"class.icu_75::ParsePosition", ptr %this1, i32 0, i32 1
  %0 = load i32, ptr %index, align 8
  ret i32 %0
}

; Function Attrs: mustprogress nounwind uwtable
define internal noundef signext i8 @_ZL9U_FAILURE10UErrorCode(i32 noundef %code) #0 {
entry:
  %code.addr = alloca i32, align 4
  store i32 %code, ptr %code.addr, align 4
  %0 = load i32, ptr %code.addr, align 4
  %cmp = icmp sgt i32 %0, 0
  %conv = zext i1 %cmp to i8
  ret i8 %conv
}

; Function Attrs: mustprogress nounwind uwtable
define linkonce_odr void @_ZN6icu_7513ParsePositionC2Ei(ptr noundef nonnull align 8 dereferenceable(16) %this, i32 noundef %newIndex) unnamed_addr #0 comdat align 2 {
entry:
  %this.addr = alloca ptr, align 8
  %newIndex.addr = alloca i32, align 4
  store ptr %this, ptr %this.addr, align 8
  store i32 %newIndex, ptr %newIndex.addr, align 4
  %this1 = load ptr, ptr %this.addr, align 8
  %0 = getelementptr inbounds i8, ptr %this1, i64 0
  call void @llvm.memset.p0.i64(ptr align 8 %0, i8 0, i64 8, i1 false)
  call void @_ZN6icu_757UObjectC2Ev(ptr noundef nonnull align 8 dereferenceable(8) %this1) #10
  store ptr getelementptr inbounds ({ [5 x ptr] }, ptr @_ZTVN6icu_7513ParsePositionE, i32 0, i32 0, i32 2), ptr %this1, align 8
  %index = getelementptr inbounds %"class.icu_75::ParsePosition", ptr %this1, i32 0, i32 1
  %1 = load i32, ptr %newIndex.addr, align 4
  store i32 %1, ptr %index, align 8
  %errorIndex = getelementptr inbounds %"class.icu_75::ParsePosition", ptr %this1, i32 0, i32 2
  store i32 -1, ptr %errorIndex, align 4
  ret void
}

; Function Attrs: mustprogress nounwind uwtable
define linkonce_odr void @_ZN6icu_7514UnicodeMatcherC2Ev(ptr noundef nonnull align 8 dereferenceable(8) %this) unnamed_addr #0 comdat align 2 {
entry:
  %this.addr = alloca ptr, align 8
  store ptr %this, ptr %this.addr, align 8
  %this1 = load ptr, ptr %this.addr, align 8
  store ptr getelementptr inbounds ({ [8 x ptr] }, ptr @_ZTVN6icu_7514UnicodeMatcherE, i32 0, i32 0, i32 2), ptr %this1, align 8
  ret void
}

; Function Attrs: mustprogress nounwind uwtable
define linkonce_odr void @_ZN6icu_7514UnicodeFunctorC2Ev(ptr noundef nonnull align 8 dereferenceable(8) %this) unnamed_addr #0 comdat align 2 {
entry:
  %this.addr = alloca ptr, align 8
  store ptr %this, ptr %this.addr, align 8
  %this1 = load ptr, ptr %this.addr, align 8
  call void @_ZN6icu_757UObjectC2Ev(ptr noundef nonnull align 8 dereferenceable(8) %this1) #10
  store ptr getelementptr inbounds ({ [9 x ptr] }, ptr @_ZTVN6icu_7514UnicodeFunctorE, i32 0, i32 0, i32 2), ptr %this1, align 8
  ret void
}

; Function Attrs: mustprogress uwtable
define noundef nonnull align 8 dereferenceable(200) ptr @_ZN6icu_7510UnicodeSet12applyPatternERKNS_13UnicodeStringER10UErrorCode(ptr noundef nonnull align 8 dereferenceable(200) %this, ptr noundef nonnull align 8 dereferenceable(64) %pattern, ptr noundef nonnull align 4 dereferenceable(4) %status) #1 align 2 personality ptr @__gxx_personality_v0 {
entry:
  %retval = alloca ptr, align 8
  %this.addr = alloca ptr, align 8
  %pattern.addr = alloca ptr, align 8
  %status.addr = alloca ptr, align 8
  %pos = alloca %"class.icu_75::ParsePosition", align 8
  %exn.slot = alloca ptr, align 8
  %ehselector.slot = alloca i32, align 4
  %cleanup.dest.slot = alloca i32, align 4
  %i = alloca i32, align 4
  store ptr %this, ptr %this.addr, align 8
  store ptr %pattern, ptr %pattern.addr, align 8
  store ptr %status, ptr %status.addr, align 8
  %this1 = load ptr, ptr %this.addr, align 8
  call void @_ZN6icu_7513ParsePositionC2Ei(ptr noundef nonnull align 8 dereferenceable(16) %pos, i32 noundef 0)
  %0 = load ptr, ptr %pattern.addr, align 8
  %1 = load ptr, ptr %status.addr, align 8
  invoke void @_ZN6icu_7510UnicodeSet23applyPatternIgnoreSpaceERKNS_13UnicodeStringERNS_13ParsePositionEPKNS_11SymbolTableER10UErrorCode(ptr noundef nonnull align 8 dereferenceable(200) %this1, ptr noundef nonnull align 8 dereferenceable(64) %0, ptr noundef nonnull align 8 dereferenceable(16) %pos, ptr noundef null, ptr noundef nonnull align 4 dereferenceable(4) %1)
          to label %invoke.cont unwind label %lpad

invoke.cont:                                      ; preds = %entry
  %2 = load ptr, ptr %status.addr, align 8
  %3 = load i32, ptr %2, align 4
  %call = invoke noundef signext i8 @_ZL9U_FAILURE10UErrorCode(i32 noundef %3)
          to label %invoke.cont2 unwind label %lpad

invoke.cont2:                                     ; preds = %invoke.cont
  %tobool = icmp ne i8 %call, 0
  br i1 %tobool, label %if.then, label %if.end

if.then:                                          ; preds = %invoke.cont2
  store ptr %this1, ptr %retval, align 8
  store i32 1, ptr %cleanup.dest.slot, align 4
  br label %cleanup

lpad:                                             ; preds = %invoke.cont5, %invoke.cont3, %if.end, %invoke.cont, %entry
  %4 = landingpad { ptr, i32 }
          cleanup
  %5 = extractvalue { ptr, i32 } %4, 0
  store ptr %5, ptr %exn.slot, align 8
  %6 = extractvalue { ptr, i32 } %4, 1
  store i32 %6, ptr %ehselector.slot, align 4
  call void @_ZN6icu_7513ParsePositionD1Ev(ptr noundef nonnull align 8 dereferenceable(16) %pos) #10
  br label %eh.resume

if.end:                                           ; preds = %invoke.cont2
  %call4 = invoke noundef i32 @_ZNK6icu_7513ParsePosition8getIndexEv(ptr noundef nonnull align 8 dereferenceable(16) %pos)
          to label %invoke.cont3 unwind label %lpad

invoke.cont3:                                     ; preds = %if.end
  store i32 %call4, ptr %i, align 4
  %7 = load ptr, ptr %pattern.addr, align 8
  %call6 = invoke noundef i32 @_ZN6icu_7511ICU_Utility14skipWhitespaceERKNS_13UnicodeStringERia(ptr noundef nonnull align 8 dereferenceable(64) %7, ptr noundef nonnull align 4 dereferenceable(4) %i, i8 noundef signext 1)
          to label %invoke.cont5 unwind label %lpad

invoke.cont5:                                     ; preds = %invoke.cont3
  %8 = load i32, ptr %i, align 4
  %9 = load ptr, ptr %pattern.addr, align 8
  %call8 = invoke noundef i32 @_ZNK6icu_7513UnicodeString6lengthEv(ptr noundef nonnull align 8 dereferenceable(64) %9)
          to label %invoke.cont7 unwind label %lpad

invoke.cont7:                                     ; preds = %invoke.cont5
  %cmp = icmp ne i32 %8, %call8
  br i1 %cmp, label %if.then9, label %if.end10

if.then9:                                         ; preds = %invoke.cont7
  %10 = load ptr, ptr %status.addr, align 8
  store i32 1, ptr %10, align 4
  br label %if.end10

if.end10:                                         ; preds = %if.then9, %invoke.cont7
  store ptr %this1, ptr %retval, align 8
  store i32 1, ptr %cleanup.dest.slot, align 4
  br label %cleanup

cleanup:                                          ; preds = %if.end10, %if.then
  call void @_ZN6icu_7513ParsePositionD1Ev(ptr noundef nonnull align 8 dereferenceable(16) %pos) #10
  %11 = load ptr, ptr %retval, align 8
  ret ptr %11

eh.resume:                                        ; preds = %lpad
  %exn = load ptr, ptr %exn.slot, align 8
  %sel = load i32, ptr %ehselector.slot, align 4
  %lpad.val = insertvalue { ptr, i32 } poison, ptr %exn, 0
  %lpad.val11 = insertvalue { ptr, i32 } %lpad.val, i32 %sel, 1
  resume { ptr, i32 } %lpad.val11
}

; Function Attrs: mustprogress nounwind uwtable
define linkonce_odr void @_ZN6icu_7513UnicodeFilterC2Ev(ptr noundef nonnull align 8 dereferenceable(16) %this) unnamed_addr #0 comdat align 2 {
entry:
  %this.addr = alloca ptr, align 8
  store ptr %this, ptr %this.addr, align 8
  %this1 = load ptr, ptr %this.addr, align 8
  call void @_ZN6icu_7514UnicodeFunctorC2Ev(ptr noundef nonnull align 8 dereferenceable(8) %this1) #10
  %0 = getelementptr inbounds i8, ptr %this1, i64 8
  call void @_ZN6icu_7514UnicodeMatcherC2Ev(ptr noundef nonnull align 8 dereferenceable(8) %0) #10
  store ptr getelementptr inbounds ({ [11 x ptr], [8 x ptr] }, ptr @_ZTVN6icu_7513UnicodeFilterE, i32 0, i32 0, i32 2), ptr %this1, align 8
  %add.ptr = getelementptr inbounds i8, ptr %this1, i64 8
  store ptr getelementptr inbounds ({ [11 x ptr], [8 x ptr] }, ptr @_ZTVN6icu_7513UnicodeFilterE, i32 0, i32 1, i32 2), ptr %add.ptr, align 8
  ret void
}

; Function Attrs: mustprogress uwtable
define void @_ZN6icu_7510UnicodeSetC2ERKNS_13UnicodeStringER10UErrorCode(ptr noundef nonnull align 8 dereferenceable(200) %this, ptr noundef nonnull align 8 dereferenceable(64) %pattern, ptr noundef nonnull align 4 dereferenceable(4) %status) unnamed_addr #1 align 2 personality ptr @__gxx_personality_v0 {
entry:
  %this.addr = alloca ptr, align 8
  %pattern.addr = alloca ptr, align 8
  %status.addr = alloca ptr, align 8
  %exn.slot = alloca ptr, align 8
  %ehselector.slot = alloca i32, align 4
  store ptr %this, ptr %this.addr, align 8
  store ptr %pattern, ptr %pattern.addr, align 8
  store ptr %status, ptr %status.addr, align 8
  %this1 = load ptr, ptr %this.addr, align 8
  call void @_ZN6icu_7513UnicodeFilterC2Ev(ptr noundef nonnull align 8 dereferenceable(16) %this1) #10
  store ptr getelementptr inbounds ({ [35 x ptr], [8 x ptr] }, ptr @_ZTVN6icu_7510UnicodeSetE, i32 0, i32 0, i32 2), ptr %this1, align 8
  %add.ptr = getelementptr inbounds i8, ptr %this1, i64 8
  store ptr getelementptr inbounds ({ [35 x ptr], [8 x ptr] }, ptr @_ZTVN6icu_7510UnicodeSetE, i32 0, i32 1, i32 2), ptr %add.ptr, align 8
  %list = getelementptr inbounds %"class.icu_75::UnicodeSet", ptr %this1, i32 0, i32 1
  %stackList = getelementptr inbounds %"class.icu_75::UnicodeSet", ptr %this1, i32 0, i32 15
  %arraydecay = getelementptr inbounds [25 x i32], ptr %stackList, i64 0, i64 0
  store ptr %arraydecay, ptr %list, align 8
  %capacity = getelementptr inbounds %"class.icu_75::UnicodeSet", ptr %this1, i32 0, i32 2
  store i32 25, ptr %capacity, align 8
  %len = getelementptr inbounds %"class.icu_75::UnicodeSet", ptr %this1, i32 0, i32 3
  store i32 1, ptr %len, align 4
  %fFlags = getelementptr inbounds %"class.icu_75::UnicodeSet", ptr %this1, i32 0, i32 4
  store i8 0, ptr %fFlags, align 8
  %bmpSet = getelementptr inbounds %"class.icu_75::UnicodeSet", ptr %this1, i32 0, i32 6
  store ptr null, ptr %bmpSet, align 8
  %buffer = getelementptr inbounds %"class.icu_75::UnicodeSet", ptr %this1, i32 0, i32 7
  store ptr null, ptr %buffer, align 8
  %bufferCapacity = getelementptr inbounds %"class.icu_75::UnicodeSet", ptr %this1, i32 0, i32 8
  store i32 0, ptr %bufferCapacity, align 8
  %pat = getelementptr inbounds %"class.icu_75::UnicodeSet", ptr %this1, i32 0, i32 10
  store ptr null, ptr %pat, align 8
  %patLen = getelementptr inbounds %"class.icu_75::UnicodeSet", ptr %this1, i32 0, i32 11
  store i32 0, ptr %patLen, align 8
  %strings = getelementptr inbounds %"class.icu_75::UnicodeSet", ptr %this1, i32 0, i32 13
  store ptr null, ptr %strings, align 8
  %stringSpan = getelementptr inbounds %"class.icu_75::UnicodeSet", ptr %this1, i32 0, i32 14
  store ptr null, ptr %stringSpan, align 8
  %0 = load ptr, ptr %pattern.addr, align 8
  %1 = load ptr, ptr %status.addr, align 8
  %call = invoke noundef nonnull align 8 dereferenceable(200) ptr @_ZN6icu_7510UnicodeSet12applyPatternERKNS_13UnicodeStringER10UErrorCode(ptr noundef nonnull align 8 dereferenceable(200) %this1, ptr noundef nonnull align 8 dereferenceable(64) %0, ptr noundef nonnull align 4 dereferenceable(4) %1)
          to label %invoke.cont unwind label %lpad

invoke.cont:                                      ; preds = %entry
  ret void

lpad:                                             ; preds = %entry
  %2 = landingpad { ptr, i32 }
          cleanup
  %3 = extractvalue { ptr, i32 } %2, 0
  store ptr %3, ptr %exn.slot, align 8
  %4 = extractvalue { ptr, i32 } %2, 1
  store i32 %4, ptr %ehselector.slot, align 4
  call void @_ZN6icu_7513UnicodeFilterD2Ev(ptr noundef nonnull align 8 dereferenceable(16) %this1) #10
  br label %eh.resume

eh.resume:                                        ; preds = %lpad
  %exn = load ptr, ptr %exn.slot, align 8
  %sel = load i32, ptr %ehselector.slot, align 4
  %lpad.val = insertvalue { ptr, i32 } poison, ptr %exn, 0
  %lpad.val2 = insertvalue { ptr, i32 } %lpad.val, i32 %sel, 1
  resume { ptr, i32 } %lpad.val2
}