; Function Attrs: mustprogress uwtable
define void @_ZN6icu_7510UnicodeSetC2ERKNS_13UnicodeStringER10UErrorCode(ptr noundef nonnull align 8 dereferenceable(200) %this, ptr noundef nonnull align 8 dereferenceable(64) %pattern, ptr noundef nonnull align 4 dereferenceable(4) %status) unnamed_addr #1 align 2 personality ptr @__gxx_personality_v0 {
entry:
  %pos.i = alloca %"class.icu_75::ParsePosition", align 8
  %i.i = alloca i32, align 4
  %0 = getelementptr inbounds i8, ptr %this, i64 8
  store ptr getelementptr inbounds ({ [35 x ptr], [8 x ptr] }, ptr @_ZTVN6icu_7510UnicodeSetE, i64 0, i32 0, i64 2), ptr %this, align 8
  store ptr getelementptr inbounds ({ [35 x ptr], [8 x ptr] }, ptr @_ZTVN6icu_7510UnicodeSetE, i64 0, i32 1, i64 2), ptr %0, align 8
  %list = getelementptr inbounds i8, ptr %this, i64 16
  %stackList = getelementptr inbounds i8, ptr %this, i64 96
  store ptr %stackList, ptr %list, align 8
  %capacity = getelementptr inbounds i8, ptr %this, i64 24
  store i32 25, ptr %capacity, align 8
  %len = getelementptr inbounds i8, ptr %this, i64 28
  store i32 1, ptr %len, align 4
  %fFlags = getelementptr inbounds i8, ptr %this, i64 32
  store i8 0, ptr %fFlags, align 8
  %bmpSet = getelementptr inbounds i8, ptr %this, i64 40
  %pat = getelementptr inbounds i8, ptr %this, i64 64
  store ptr null, ptr %pat, align 8
  %patLen = getelementptr inbounds i8, ptr %this, i64 72
  store i32 0, ptr %patLen, align 8
  %strings = getelementptr inbounds i8, ptr %this, i64 80
  tail call void @llvm.memset.p0.i64(ptr noundef nonnull align 8 dereferenceable(20) %bmpSet, i8 0, i64 20, i1 false)
  tail call void @llvm.memset.p0.i64(ptr noundef nonnull align 8 dereferenceable(16) %strings, i8 0, i64 16, i1 false)
  call void @llvm.lifetime.start.p0(i64 16, ptr nonnull %pos.i)
  call void @llvm.lifetime.start.p0(i64 4, ptr nonnull %i.i)
  store ptr getelementptr inbounds ({ [5 x ptr] }, ptr @_ZTVN6icu_7513ParsePositionE, i64 0, i32 0, i64 2), ptr %pos.i, align 8
  %index.i.i = getelementptr inbounds i8, ptr %pos.i, i64 8
  store i32 0, ptr %index.i.i, align 8
  %errorIndex.i.i = getelementptr inbounds i8, ptr %pos.i, i64 12
  store i32 -1, ptr %errorIndex.i.i, align 4
  invoke void @_ZN6icu_7510UnicodeSet23applyPatternIgnoreSpaceERKNS_13UnicodeStringERNS_13ParsePositionEPKNS_11SymbolTableER10UErrorCode(ptr noundef nonnull align 8 dereferenceable(200) %this, ptr noundef nonnull align 8 dereferenceable(64) %pattern, ptr noundef nonnull align 8 dereferenceable(16) %pos.i, ptr noundef null, ptr noundef nonnull align 4 dereferenceable(4) %status)
          to label %invoke.cont.i unwind label %lpad.i

invoke.cont.i:                                    ; preds = %entry
  %1 = load i32, ptr %status, align 4
  %cmp.i.i = icmp slt i32 %1, 1
  br i1 %cmp.i.i, label %if.end.i, label %invoke.cont

lpad.i:                                           ; preds = %if.end.i, %entry
  %2 = landingpad { ptr, i32 }
          cleanup
  call void @_ZN6icu_7513ParsePositionD1Ev(ptr noundef nonnull align 8 dereferenceable(16) %pos.i) #15
  call void @_ZN6icu_7513UnicodeFilterD2Ev(ptr noundef nonnull align 8 dereferenceable(16) %this) #15
  resume { ptr, i32 } %2

if.end.i:                                         ; preds = %invoke.cont.i
  %3 = load i32, ptr %index.i.i, align 8
  store i32 %3, ptr %i.i, align 4
  %call6.i = invoke noundef i32 @_ZN6icu_7511ICU_Utility14skipWhitespaceERKNS_13UnicodeStringERia(ptr noundef nonnull align 8 dereferenceable(64) %pattern, ptr noundef nonnull align 4 dereferenceable(4) %i.i, i8 noundef signext 1)
          to label %invoke.cont7.i unwind label %lpad.i

invoke.cont7.i:                                   ; preds = %if.end.i
  %4 = load i32, ptr %i.i, align 4
  %fUnion.i.i.i = getelementptr inbounds i8, ptr %pattern, i64 8
  %5 = load i16, ptr %fUnion.i.i.i, align 8
  %cmp.i.i.i = icmp slt i16 %5, 0
  %6 = ashr i16 %5, 5
  %shr.i.i.i = sext i16 %6 to i32
  %fLength.i.i = getelementptr inbounds i8, ptr %pattern, i64 12
  %7 = load i32, ptr %fLength.i.i, align 4
  %cond.i.i = select i1 %cmp.i.i.i, i32 %7, i32 %shr.i.i.i
  %cmp.not.i = icmp eq i32 %4, %cond.i.i
  br i1 %cmp.not.i, label %invoke.cont, label %if.then9.i

if.then9.i:                                       ; preds = %invoke.cont7.i
  store i32 1, ptr %status, align 4
  br label %invoke.cont

invoke.cont:                                      ; preds = %if.then9.i, %invoke.cont7.i, %invoke.cont.i
  call void @_ZN6icu_7513ParsePositionD1Ev(ptr noundef nonnull align 8 dereferenceable(16) %pos.i) #15
  call void @llvm.lifetime.end.p0(i64 16, ptr nonnull %pos.i)
  call void @llvm.lifetime.end.p0(i64 4, ptr nonnull %i.i)
  ret void
}